target datalayout = "e-m:e-p270:32:32-p271:32:32-p272:64:64-i64:64-i128:128-f80:128-n8:16:32:64-S128"
target triple = "x86_64-pc-linux-gnu"

; Function Attrs: nounwind uwtable
define dso_local zeroext i1 @pg_utf8_islegal(ptr noundef %0, i32 noundef %1) #1 {
  %3 = alloca i1, align 1
  %4 = alloca ptr, align 8
  %5 = alloca i32, align 4
  %6 = alloca i8, align 1
  %7 = alloca i32, align 4
  store ptr %0, ptr %4, align 8
  store i32 %1, ptr %5, align 4
  call void @llvm.lifetime.start.p0(i64 1, ptr %6) #7
  %8 = load i32, ptr %5, align 4
  switch i32 %8, label %9 [
    i32 4, label %10
    i32 3, label %23
    i32 2, label %36
    i32 1, label %94
  ]

9:                                                ; preds = %2
  store i1 false, ptr %3, align 1
  store i32 1, ptr %7, align 4
  br label %112

10:                                               ; preds = %2
  %11 = load ptr, ptr %4, align 8
  %12 = getelementptr inbounds i8, ptr %11, i64 3
  %13 = load i8, ptr %12, align 1
  store i8 %13, ptr %6, align 1
  %14 = load i8, ptr %6, align 1
  %15 = zext i8 %14 to i32
  %16 = icmp slt i32 %15, 128
  br i1 %16, label %21, label %17

17:                                               ; preds = %10
  %18 = load i8, ptr %6, align 1
  %19 = zext i8 %18 to i32
  %20 = icmp sgt i32 %19, 191
  br i1 %20, label %21, label %22

21:                                               ; preds = %17, %10
  store i1 false, ptr %3, align 1
  store i32 1, ptr %7, align 4
  br label %112

22:                                               ; preds = %17
  br label %23

23:                                               ; preds = %2, %22
  %24 = load ptr, ptr %4, align 8
  %25 = getelementptr inbounds i8, ptr %24, i64 2
  %26 = load i8, ptr %25, align 1
  store i8 %26, ptr %6, align 1
  %27 = load i8, ptr %6, align 1
  %28 = zext i8 %27 to i32
  %29 = icmp slt i32 %28, 128
  br i1 %29, label %34, label %30

30:                                               ; preds = %23
  %31 = load i8, ptr %6, align 1
  %32 = zext i8 %31 to i32
  %33 = icmp sgt i32 %32, 191
  br i1 %33, label %34, label %35

34:                                               ; preds = %30, %23
  store i1 false, ptr %3, align 1
  store i32 1, ptr %7, align 4
  br label %112

35:                                               ; preds = %30
  br label %36

36:                                               ; preds = %2, %35
  %37 = load ptr, ptr %4, align 8
  %38 = getelementptr inbounds i8, ptr %37, i64 1
  %39 = load i8, ptr %38, align 1
  store i8 %39, ptr %6, align 1
  %40 = load ptr, ptr %4, align 8
  %41 = load i8, ptr %40, align 1
  %42 = zext i8 %41 to i32
  switch i32 %42, label %83 [
    i32 224, label %43
    i32 237, label %53
    i32 240, label %63
    i32 244, label %73
  ]

43:                                               ; preds = %36
  %44 = load i8, ptr %6, align 1
  %45 = zext i8 %44 to i32
  %46 = icmp slt i32 %45, 160
  br i1 %46, label %51, label %47

47:                                               ; preds = %43
  %48 = load i8, ptr %6, align 1
  %49 = zext i8 %48 to i32
  %50 = icmp sgt i32 %49, 191
  br i1 %50, label %51, label %52

51:                                               ; preds = %47, %43
  store i1 false, ptr %3, align 1
  store i32 1, ptr %7, align 4
  br label %112

52:                                               ; preds = %47
  br label %93

53:                                               ; preds = %36
  %54 = load i8, ptr %6, align 1
  %55 = zext i8 %54 to i32
  %56 = icmp slt i32 %55, 128
  br i1 %56, label %61, label %57

57:                                               ; preds = %53
  %58 = load i8, ptr %6, align 1
  %59 = zext i8 %58 to i32
  %60 = icmp sgt i32 %59, 159
  br i1 %60, label %61, label %62

61:                                               ; preds = %57, %53
  store i1 false, ptr %3, align 1
  store i32 1, ptr %7, align 4
  br label %112

62:                                               ; preds = %57
  br label %93

63:                                               ; preds = %36
  %64 = load i8, ptr %6, align 1
  %65 = zext i8 %64 to i32
  %66 = icmp slt i32 %65, 144
  br i1 %66, label %71, label %67

67:                                               ; preds = %63
  %68 = load i8, ptr %6, align 1
  %69 = zext i8 %68 to i32
  %70 = icmp sgt i32 %69, 191
  br i1 %70, label %71, label %72

71:                                               ; preds = %67, %63
  store i1 false, ptr %3, align 1
  store i32 1, ptr %7, align 4
  br label %112

72:                                               ; preds = %67
  br label %93

73:                                               ; preds = %36
  %74 = load i8, ptr %6, align 1
  %75 = zext i8 %74 to i32
  %76 = icmp slt i32 %75, 128
  br i1 %76, label %81, label %77

77:                                               ; preds = %73
  %78 = load i8, ptr %6, align 1
  %79 = zext i8 %78 to i32
  %80 = icmp sgt i32 %79, 143
  br i1 %80, label %81, label %82

81:                                               ; preds = %77, %73
  store i1 false, ptr %3, align 1
  store i32 1, ptr %7, align 4
  br label %112

82:                                               ; preds = %77
  br label %93

83:                                               ; preds = %36
  %84 = load i8, ptr %6, align 1
  %85 = zext i8 %84 to i32
  %86 = icmp slt i32 %85, 128
  br i1 %86, label %91, label %87

87:                                               ; preds = %83
  %88 = load i8, ptr %6, align 1
  %89 = zext i8 %88 to i32
  %90 = icmp sgt i32 %89, 191
  br i1 %90, label %91, label %92

91:                                               ; preds = %87, %83
  store i1 false, ptr %3, align 1
  store i32 1, ptr %7, align 4
  br label %112

92:                                               ; preds = %87
  br label %93

93:                                               ; preds = %92, %82, %72, %62, %52
  br label %94

94:                                               ; preds = %2, %93
  %95 = load ptr, ptr %4, align 8
  %96 = load i8, ptr %95, align 1
  store i8 %96, ptr %6, align 1
  %97 = load i8, ptr %6, align 1
  %98 = zext i8 %97 to i32
  %99 = icmp sge i32 %98, 128
  br i1 %99, label %100, label %105

100:                                              ; preds = %94
  %101 = load i8, ptr %6, align 1
  %102 = zext i8 %101 to i32
  %103 = icmp slt i32 %102, 194
  br i1 %103, label %104, label %105

104:                                              ; preds = %100
  store i1 false, ptr %3, align 1
  store i32 1, ptr %7, align 4
  br label %112

105:                                              ; preds = %100, %94
  %106 = load i8, ptr %6, align 1
  %107 = zext i8 %106 to i32
  %108 = icmp sgt i32 %107, 244
  br i1 %108, label %109, label %110

109:                                              ; preds = %105
  store i1 false, ptr %3, align 1
  store i32 1, ptr %7, align 4
  br label %112

110:                                              ; preds = %105
  br label %111

111:                                              ; preds = %110
  store i1 true, ptr %3, align 1
  store i32 1, ptr %7, align 4
  br label %112

112:                                              ; preds = %111, %109, %104, %91, %81, %71, %61, %51, %34, %21, %9
  call void @llvm.lifetime.end.p0(i64 1, ptr %6) #7
  %113 = load i1, ptr %3, align 1
  ret i1 %113
}