; Function Attrs: mustprogress nofree norecurse nosync nounwind willreturn memory(argmem: read) uwtable
define dso_local zeroext i1 @pg_utf8_islegal(ptr noundef readonly captures(none) %0, i32 noundef %1) local_unnamed_addr #0 {
  switch i32 %1, label %24 [
    i32 4, label %3
    i32 3, label %6
    i32 2, label %9
    i32 1, label %thread-pre-split
  ]

3:                                                ; preds = %2
  %4 = getelementptr inbounds nuw i8, ptr %0, i64 3
  %5 = load i8, ptr %4, align 1
  %or.cond = icmp sgt i8 %5, -65
  br i1 %or.cond, label %24, label %6

6:                                                ; preds = %3, %2
  %7 = getelementptr inbounds nuw i8, ptr %0, i64 2
  %8 = load i8, ptr %7, align 1
  %or.cond5 = icmp sgt i8 %8, -65
  br i1 %or.cond5, label %24, label %9

9:                                                ; preds = %6, %2
  %10 = getelementptr inbounds nuw i8, ptr %0, i64 1
  %11 = load i8, ptr %10, align 1
  %12 = load i8, ptr %0, align 1
  switch i8 %12, label %19 [
    i8 -32, label %13
    i8 -19, label %15
    i8 -16, label %16
    i8 -12, label %18
  ]

13:                                               ; preds = %9
  %14 = add i8 %11, 64
  %or.cond8 = icmp ult i8 %14, -32
  br i1 %or.cond8, label %24, label %.thread

15:                                               ; preds = %9
  %or.cond11 = icmp sgt i8 %11, -97
  br i1 %or.cond11, label %24, label %.thread

16:                                               ; preds = %9
  %17 = add i8 %11, 64
  %or.cond14 = icmp ult i8 %17, -48
  br i1 %or.cond14, label %24, label %.thread

18:                                               ; preds = %9
  %or.cond17 = icmp sgt i8 %11, -113
  br i1 %or.cond17, label %24, label %.thread

19:                                               ; preds = %9
  %or.cond20 = icmp sgt i8 %11, -65
  br i1 %or.cond20, label %24, label %20

thread-pre-split:                                 ; preds = %2
  %.pr = load i8, ptr %0, align 1
  br label %20

20:                                               ; preds = %thread-pre-split, %19
  %21 = phi i8 [ %.pr, %thread-pre-split ], [ %12, %19 ]
  %or.cond23 = icmp slt i8 %21, -62
  br i1 %or.cond23, label %24, label %.thread

.thread:                                          ; preds = %18, %16, %15, %13, %20
  %22 = phi i8 [ %21, %20 ], [ -32, %13 ], [ -19, %15 ], [ -16, %16 ], [ -12, %18 ]
  %23 = icmp ult i8 %22, -11
  br label %24

24:                                               ; preds = %.thread, %20, %19, %18, %16, %15, %13, %6, %3, %2
  %.0 = phi i1 [ false, %2 ], [ false, %3 ], [ false, %6 ], [ false, %13 ], [ false, %15 ], [ false, %16 ], [ false, %18 ], [ false, %19 ], [ false, %20 ], [ %23, %.thread ]
  ret i1 %.0
}